; Function Attrs: nounwind uwtable
define dso_local noundef ptr @string_list_append_nodup(ptr noundef captures(none) %0, ptr noundef %1) local_unnamed_addr #4 {
  %3 = getelementptr inbounds nuw i8, ptr %0, i64 8
  %4 = load i64, ptr %3, align 8, !tbaa !4
  %5 = add i64 %4, 1
  %6 = getelementptr inbounds nuw i8, ptr %0, i64 16
  %7 = load i64, ptr %6, align 8, !tbaa !19
  %8 = icmp ugt i64 %5, %7
  br i1 %8, label %9, label %._crit_edge

._crit_edge:                                      ; preds = %2
  %.pre = load ptr, ptr %0, align 8, !tbaa !13
  br label %18

9:                                                ; preds = %2
  %10 = mul i64 %7, 3
  %11 = add i64 %10, 48
  %12 = lshr i64 %11, 1
  %. = tail call i64 @llvm.umax.i64(i64 %12, i64 %5)
  store i64 %., ptr %6, align 8, !tbaa !19
  %13 = icmp ugt i64 %., 1152921504606846975
  br i1 %13, label %14, label %st_mult.exit

14:                                               ; preds = %9
  tail call void (ptr, ...) @die(ptr noundef nonnull @.str.6, i64 noundef 16, i64 noundef %.) #12
  unreachable

st_mult.exit:                                     ; preds = %9
  %15 = load ptr, ptr %0, align 8, !tbaa !13
  %16 = shl nuw i64 %., 4
  %17 = tail call ptr @xrealloc(ptr noundef %15, i64 noundef %16) #11
  store ptr %17, ptr %0, align 8, !tbaa !13
  %.pre19 = load i64, ptr %3, align 8, !tbaa !4
  %.pre20 = add i64 %.pre19, 1
  br label %18

18:                                               ; preds = %._crit_edge, %st_mult.exit
  %.pre-phi = phi i64 [ %5, %._crit_edge ], [ %.pre20, %st_mult.exit ]
  %19 = phi i64 [ %4, %._crit_edge ], [ %.pre19, %st_mult.exit ]
  %20 = phi ptr [ %.pre, %._crit_edge ], [ %17, %st_mult.exit ]
  store i64 %.pre-phi, ptr %3, align 8, !tbaa !4
  %21 = getelementptr inbounds nuw %struct.string_list_item, ptr %20, i64 %19
  store ptr %1, ptr %21, align 8, !tbaa !14
  %22 = getelementptr inbounds nuw i8, ptr %21, i64 8
  store ptr null, ptr %22, align 8, !tbaa !20
  ret ptr %21
}